(dp1
S'output'
p2
S''
sS'layer'
p3
S'Framework'
p4
sS'code'
p5
S''
sS'snapshot'
p6
(dp7
sS'traceback'
p8
S'Traceback (most recent call last):\n  File "/mnt/hgfs/fflock/modules/web2py/gluon/main.py", line 446, in wsgibase\n    serve_controller(request, response, session)\n  File "/mnt/hgfs/fflock/modules/web2py/gluon/main.py", line 192, in serve_controller\n    page = run_controller_in(request.controller, request.function, environment)\n  File "/mnt/hgfs/fflock/modules/web2py/gluon/compileapp.py", line 612, in run_controller_in\n    restricted(code, environment, filename)\n  File "/mnt/hgfs/fflock/modules/web2py/gluon/restricted.py", line 217, in restricted\n    exec ccode in environment\n  File "/mnt/hgfs/fflock/modules/web2py/applications/fflock/controllers/default.py", line 44, in <module>\n  File "/mnt/hgfs/fflock/modules/web2py/gluon/globals.py", line 372, in <lambda>\n    self._caller = lambda f: f()\n  File "/mnt/hgfs/fflock/modules/web2py/applications/fflock/controllers/default.py", line 32, in index\n    _db = fflock_utility.dbconnect()\n  File "/mnt/hgfs/fflock/modules/fflock_utility.py", line 35, in dbconnect\n    sys.exit(1)\nSystemExit: 1\n'
p9
s.